; Function Attrs: mustprogress uwtable
define noundef zeroext i1 @_ZN3url18ReplaceStandardURLEPKcRKNS_6ParsedERKNS_12ReplacementsItEEPNS_16CharsetConverterEPNS_12CanonOutputTIcEEPS2_(ptr noundef %0, ptr noundef nonnull align 8 dereferenceable(72) %1, ptr noundef nonnull align 8 dereferenceable(136) %2, ptr noundef %3, ptr noundef %4, ptr noundef %5) local_unnamed_addr #3 personality ptr @__gxx_personality_v0 {
  %7 = alloca %"class.url::RawCanonOutput", align 8
  %8 = alloca %"struct.url::URLComponentSource", align 8
  %9 = alloca %"struct.url::Parsed", align 8
  call void @llvm.lifetime.start.p0(i64 1048, ptr nonnull %7) #13
  %10 = getelementptr inbounds nuw i8, ptr %7, i64 8
  %11 = getelementptr inbounds nuw i8, ptr %7, i64 16
  store i64 1024, ptr %11, align 8
  %12 = getelementptr inbounds nuw i8, ptr %7, i64 24
  store ptr %12, ptr %10, align 8, !tbaa !26
  store ptr getelementptr inbounds nuw inrange(-16, 24) (i8, ptr @_ZTVN3url14RawCanonOutputILi1024EEE, i64 16), ptr %7, align 8, !tbaa !24
  call void @llvm.lifetime.start.p0(i64 64, ptr nonnull %8) #13
  store ptr %0, ptr %8, align 8, !tbaa !3
  %13 = getelementptr inbounds nuw i8, ptr %8, i64 8
  store ptr %0, ptr %13, align 8, !tbaa !9
  %14 = getelementptr inbounds nuw i8, ptr %8, i64 16
  store ptr %0, ptr %14, align 8, !tbaa !10
  %15 = getelementptr inbounds nuw i8, ptr %8, i64 24
  store ptr %0, ptr %15, align 8, !tbaa !11
  %16 = getelementptr inbounds nuw i8, ptr %8, i64 32
  store ptr %0, ptr %16, align 8, !tbaa !12
  %17 = getelementptr inbounds nuw i8, ptr %8, i64 40
  store ptr %0, ptr %17, align 8, !tbaa !13
  %18 = getelementptr inbounds nuw i8, ptr %8, i64 48
  store ptr %0, ptr %18, align 8, !tbaa !14
  %19 = getelementptr inbounds nuw i8, ptr %8, i64 56
  store ptr %0, ptr %19, align 8, !tbaa !15
  call void @llvm.lifetime.start.p0(i64 72, ptr nonnull %9) #13
  invoke void @_ZN3url6ParsedC1ERKS0_(ptr noundef nonnull align 8 dereferenceable(72) %9, ptr noundef nonnull align 8 dereferenceable(72) %1)
          to label %20 unwind label %28

20:                                               ; preds = %6
  %21 = invoke noundef zeroext i1 @_ZN3url28SetupUTF16OverrideComponentsEPKcRKNS_12ReplacementsItEEPNS_12CanonOutputTIcEEPNS_18URLComponentSourceIcEEPNS_6ParsedE(ptr noundef %0, ptr noundef nonnull align 8 dereferenceable(136) %2, ptr noundef nonnull %7, ptr noundef nonnull %8, ptr noundef nonnull %9)
          to label %22 unwind label %30

22:                                               ; preds = %20
  %23 = invoke fastcc noundef zeroext i1 @_ZN3url12_GLOBAL__N_125DoCanonicalizeStandardURLIchEEbRKNS_18URLComponentSourceIT_EERKNS_6ParsedEPNS_16CharsetConverterEPNS_12CanonOutputTIcEEPS7_(ptr noundef nonnull align 8 dereferenceable(64) %8, ptr noundef nonnull align 8 dereferenceable(72) %9, ptr noundef %3, ptr noundef %4, ptr noundef %5)
          to label %24 unwind label %30

24:                                               ; preds = %22
  call void @_ZN3url6ParsedD1Ev(ptr noundef nonnull align 8 dereferenceable(72) %9) #13
  call void @llvm.lifetime.end.p0(i64 72, ptr nonnull %9) #13
  call void @llvm.lifetime.end.p0(i64 64, ptr nonnull %8) #13
  store ptr getelementptr inbounds nuw inrange(-16, 24) (i8, ptr @_ZTVN3url15RawCanonOutputTIcLi1024EEE, i64 16), ptr %7, align 8, !tbaa !24
  %25 = load ptr, ptr %10, align 8, !tbaa !26
  %.not.i = icmp eq ptr %25, %12
  %26 = icmp eq ptr %25, null
  %or.cond.i = or i1 %.not.i, %26
  br i1 %or.cond.i, label %_ZN3url15RawCanonOutputTIcLi1024EED2Ev.exit, label %27

27:                                               ; preds = %24
  call void @_ZdaPv(ptr noundef nonnull %25) #14
  br label %_ZN3url15RawCanonOutputTIcLi1024EED2Ev.exit

_ZN3url15RawCanonOutputTIcLi1024EED2Ev.exit:      ; preds = %24, %27
  call void @llvm.lifetime.end.p0(i64 1048, ptr nonnull %7) #13
  ret i1 %23

28:                                               ; preds = %6
  %29 = landingpad { ptr, i32 }
          cleanup
  br label %32

30:                                               ; preds = %22, %20
  %31 = landingpad { ptr, i32 }
          cleanup
  call void @_ZN3url6ParsedD1Ev(ptr noundef nonnull align 8 dereferenceable(72) %9) #13
  br label %32

32:                                               ; preds = %30, %28
  %.pn = phi { ptr, i32 } [ %31, %30 ], [ %29, %28 ]
  call void @llvm.lifetime.end.p0(i64 72, ptr nonnull %9) #13
  call void @llvm.lifetime.end.p0(i64 64, ptr nonnull %8) #13
  store ptr getelementptr inbounds nuw inrange(-16, 24) (i8, ptr @_ZTVN3url15RawCanonOutputTIcLi1024EEE, i64 16), ptr %7, align 8, !tbaa !24
  %33 = load ptr, ptr %10, align 8, !tbaa !26
  %.not.i10 = icmp eq ptr %33, %12
  %34 = icmp eq ptr %33, null
  %or.cond.i11 = or i1 %.not.i10, %34
  br i1 %or.cond.i11, label %_ZN3url15RawCanonOutputTIcLi1024EED2Ev.exit12, label %35

35:                                               ; preds = %32
  call void @_ZdaPv(ptr noundef nonnull %33) #14
  br label %_ZN3url15RawCanonOutputTIcLi1024EED2Ev.exit12

_ZN3url15RawCanonOutputTIcLi1024EED2Ev.exit12:    ; preds = %32, %35
  call void @llvm.lifetime.end.p0(i64 1048, ptr nonnull %7) #13
  resume { ptr, i32 } %.pn
}